target datalayout = "e-m:e-p270:32:32-p271:32:32-p272:64:64-i64:64-i128:128-f80:128-n8:16:32:64-S128"
target triple = "x86_64-pc-linux-gnu"

%"class.icu_77::UObject" = type { ptr }
%"class.icu_77::BytesTrieBuilder::BTLinearMatchNode" = type { %"class.icu_77::StringTrieBuilder::LinearMatchNode", ptr }
%"class.icu_77::StringTrieBuilder::LinearMatchNode" = type { %"class.icu_77::StringTrieBuilder::ValueNode", i32, ptr }
%"class.icu_77::StringTrieBuilder::ValueNode" = type { %"class.icu_77::StringTrieBuilder::Node", i8, i32 }
%"class.icu_77::StringTrieBuilder::Node" = type { %"class.icu_77::UObject", i32, i32 }

@_ZTVN6icu_7717StringTrieBuilder15LinearMatchNodeE = external unnamed_addr constant { [8 x ptr] }, align 8
@_ZTVN6icu_7717StringTrieBuilder9ValueNodeE = external unnamed_addr constant { [8 x ptr] }, align 8
@_ZTVN6icu_7717StringTrieBuilder4NodeE = external unnamed_addr constant { [8 x ptr] }, align 8
@_ZTVN6icu_777UObjectE = available_externally unnamed_addr constant { [5 x ptr] } { [5 x ptr] [ptr null, ptr @_ZTIN6icu_777UObjectE, ptr @_ZN6icu_777UObjectD1Ev, ptr @_ZN6icu_777UObjectD0Ev, ptr @_ZNK6icu_777UObject17getDynamicClassIDEv] }, align 8

; Function Attrs: inlinehint mustprogress nounwind uwtable
define linkonce_odr void @_ZN6icu_777UObjectC2Ev(ptr noundef nonnull align 8 dereferenceable(8) %0) unnamed_addr #2 comdat align 2 {
  %2 = alloca ptr, align 8
  store ptr %0, ptr %2, align 8, !tbaa !94
  %3 = load ptr, ptr %2, align 8
  store ptr getelementptr inbounds inrange(-16, 24) ({ [5 x ptr] }, ptr @_ZTVN6icu_777UObjectE, i32 0, i32 0, i32 2), ptr %3, align 8, !tbaa !39
  ret void
}

; Function Attrs: mustprogress nounwind uwtable
define linkonce_odr void @_ZN6icu_7717StringTrieBuilder4NodeC2Ei(ptr noundef nonnull align 8 dereferenceable(16) %0, i32 noundef %1) unnamed_addr #0 comdat align 2 {
  %3 = alloca ptr, align 8
  %4 = alloca i32, align 4
  store ptr %0, ptr %3, align 8, !tbaa !74
  store i32 %1, ptr %4, align 4, !tbaa !14
  %5 = load ptr, ptr %3, align 8
  call void @_ZN6icu_777UObjectC2Ev(ptr noundef nonnull align 8 dereferenceable(8) %5) #12
  store ptr getelementptr inbounds inrange(-16, 48) ({ [8 x ptr] }, ptr @_ZTVN6icu_7717StringTrieBuilder4NodeE, i32 0, i32 0, i32 2), ptr %5, align 8, !tbaa !39
  %6 = getelementptr inbounds nuw %"class.icu_77::StringTrieBuilder::Node", ptr %5, i32 0, i32 1
  %7 = load i32, ptr %4, align 4, !tbaa !14
  store i32 %7, ptr %6, align 8, !tbaa !81
  %8 = getelementptr inbounds nuw %"class.icu_77::StringTrieBuilder::Node", ptr %5, i32 0, i32 2
  store i32 0, ptr %8, align 4, !tbaa !88
  ret void
}

; Function Attrs: inlinehint mustprogress nounwind uwtable
define linkonce_odr noundef i32 @_ZNK6icu_7717StringTrieBuilder4Node8hashCodeEv(ptr noundef nonnull align 8 dereferenceable(16) %0) #2 comdat align 2 {
  %2 = alloca ptr, align 8
  store ptr %0, ptr %2, align 8, !tbaa !74
  %3 = load ptr, ptr %2, align 8
  %4 = getelementptr inbounds nuw %"class.icu_77::StringTrieBuilder::Node", ptr %3, i32 0, i32 1
  %5 = load i32, ptr %4, align 8, !tbaa !81
  ret i32 %5
}

; Function Attrs: mustprogress uwtable
define linkonce_odr void @_ZN6icu_7717StringTrieBuilder9ValueNodeC2Ei(ptr noundef nonnull align 8 dereferenceable(24) %0, i32 noundef %1) unnamed_addr #1 comdat align 2 {
  %3 = alloca ptr, align 8
  %4 = alloca i32, align 4
  store ptr %0, ptr %3, align 8, !tbaa !90
  store i32 %1, ptr %4, align 4, !tbaa !14
  %5 = load ptr, ptr %3, align 8
  %6 = load i32, ptr %4, align 4, !tbaa !14
  call void @_ZN6icu_7717StringTrieBuilder4NodeC2Ei(ptr noundef nonnull align 8 dereferenceable(16) %5, i32 noundef %6)
  store ptr getelementptr inbounds inrange(-16, 48) ({ [8 x ptr] }, ptr @_ZTVN6icu_7717StringTrieBuilder9ValueNodeE, i32 0, i32 0, i32 2), ptr %5, align 8, !tbaa !39
  %7 = getelementptr inbounds nuw %"class.icu_77::StringTrieBuilder::ValueNode", ptr %5, i32 0, i32 1
  store i8 0, ptr %7, align 8, !tbaa !92
  %8 = getelementptr inbounds nuw %"class.icu_77::StringTrieBuilder::ValueNode", ptr %5, i32 0, i32 2
  store i32 0, ptr %8, align 4, !tbaa !93
  ret void
}

; Function Attrs: inlinehint mustprogress uwtable
define linkonce_odr noundef i32 @_ZN6icu_7717StringTrieBuilder4Node8hashCodeEPKS1_(ptr noundef %0) #3 comdat align 2 {
  %2 = alloca ptr, align 8
  store ptr %0, ptr %2, align 8, !tbaa !74
  %3 = load ptr, ptr %2, align 8, !tbaa !74
  %4 = icmp eq ptr %3, null
  br i1 %4, label %5, label %6

5:                                                ; preds = %1
  br label %9

6:                                                ; preds = %1
  %7 = load ptr, ptr %2, align 8, !tbaa !74
  %8 = call noundef i32 @_ZNK6icu_7717StringTrieBuilder4Node8hashCodeEv(ptr noundef nonnull align 8 dereferenceable(16) %7)
  br label %9

9:                                                ; preds = %6, %5
  %10 = phi i32 [ 0, %5 ], [ %8, %6 ]
  ret i32 %10
}

; Function Attrs: mustprogress uwtable
define linkonce_odr void @_ZN6icu_7717StringTrieBuilder15LinearMatchNodeC2EiPNS0_4NodeE(ptr noundef nonnull align 8 dereferenceable(40) %0, i32 noundef %1, ptr noundef %2) unnamed_addr #1 comdat align 2 {
  %4 = alloca ptr, align 8
  %5 = alloca i32, align 4
  %6 = alloca ptr, align 8
  store ptr %0, ptr %4, align 8, !tbaa !82
  store i32 %1, ptr %5, align 4, !tbaa !14
  store ptr %2, ptr %6, align 8, !tbaa !74
  %7 = load ptr, ptr %4, align 8
  %8 = load i32, ptr %5, align 4, !tbaa !14
  %9 = add i32 124151391, %8
  %10 = mul i32 %9, 37
  %11 = load ptr, ptr %6, align 8, !tbaa !74
  %12 = call noundef i32 @_ZN6icu_7717StringTrieBuilder4Node8hashCodeEPKS1_(ptr noundef %11)
  %13 = add i32 %10, %12
  call void @_ZN6icu_7717StringTrieBuilder9ValueNodeC2Ei(ptr noundef nonnull align 8 dereferenceable(24) %7, i32 noundef %13)
  store ptr getelementptr inbounds inrange(-16, 48) ({ [8 x ptr] }, ptr @_ZTVN6icu_7717StringTrieBuilder15LinearMatchNodeE, i32 0, i32 0, i32 2), ptr %7, align 8, !tbaa !39
  %14 = getelementptr inbounds nuw %"class.icu_77::StringTrieBuilder::LinearMatchNode", ptr %7, i32 0, i32 1
  %15 = load i32, ptr %5, align 4, !tbaa !14
  store i32 %15, ptr %14, align 8, !tbaa !84
  %16 = getelementptr inbounds nuw %"class.icu_77::StringTrieBuilder::LinearMatchNode", ptr %7, i32 0, i32 2
  %17 = load ptr, ptr %6, align 8, !tbaa !74
  store ptr %17, ptr %16, align 8, !tbaa !85
  ret void
}

; Function Attrs: mustprogress uwtable
define void @_ZN6icu_7716BytesTrieBuilder17BTLinearMatchNodeC2EPKciPNS_17StringTrieBuilder4NodeE(ptr noundef nonnull align 8 dereferenceable(48) %0, ptr noundef %1, i32 noundef %2, ptr noundef %3) unnamed_addr #1 align 2 personality ptr @__gxx_personality_v0 {
  %5 = alloca ptr, align 8
  %6 = alloca ptr, align 8
  %7 = alloca i32, align 4
  %8 = alloca ptr, align 8
  %9 = alloca ptr, align 8
  %10 = alloca i32, align 4
  store ptr %0, ptr %5, align 8, !tbaa !72
  store ptr %1, ptr %6, align 8, !tbaa !17
  store i32 %2, ptr %7, align 4, !tbaa !14
  store ptr %3, ptr %8, align 8, !tbaa !74
  %11 = load ptr, ptr %5, align 8
  %12 = load i32, ptr %7, align 4, !tbaa !14
  %13 = load ptr, ptr %8, align 8, !tbaa !74
  call void @_ZN6icu_7717StringTrieBuilder15LinearMatchNodeC2EiPNS0_4NodeE(ptr noundef nonnull align 8 dereferenceable(40) %11, i32 noundef %12, ptr noundef %13)
  store ptr getelementptr inbounds inrange(-16, 48) ({ [8 x ptr] }, ptr @_ZTVN6icu_7716BytesTrieBuilder17BTLinearMatchNodeE, i32 0, i32 0, i32 2), ptr %11, align 8, !tbaa !39
  %14 = getelementptr inbounds nuw %"class.icu_77::BytesTrieBuilder::BTLinearMatchNode", ptr %11, i32 0, i32 1
  %15 = load ptr, ptr %6, align 8, !tbaa !17
  store ptr %15, ptr %14, align 8, !tbaa !76
  %16 = getelementptr inbounds nuw %"class.icu_77::StringTrieBuilder::Node", ptr %11, i32 0, i32 1
  %17 = load i32, ptr %16, align 8, !tbaa !81
  %18 = mul i32 %17, 37
  %19 = load ptr, ptr %6, align 8, !tbaa !17
  %20 = load i32, ptr %7, align 4, !tbaa !14
  %21 = invoke i32 @ustr_hashCharsN_77(ptr noundef %19, i32 noundef %20)
          to label %22 unwind label %25

22:                                               ; preds = %4
  %23 = add i32 %18, %21
  %24 = getelementptr inbounds nuw %"class.icu_77::StringTrieBuilder::Node", ptr %11, i32 0, i32 1
  store i32 %23, ptr %24, align 8, !tbaa !81
  ret void

25:                                               ; preds = %4
  %26 = landingpad { ptr, i32 }
          cleanup
  %27 = extractvalue { ptr, i32 } %26, 0
  store ptr %27, ptr %9, align 8
  %28 = extractvalue { ptr, i32 } %26, 1
  store i32 %28, ptr %10, align 4
  call void @_ZN6icu_777UObjectD2Ev(ptr noundef nonnull align 8 dereferenceable(40) %11) #12
  br label %29

29:                                               ; preds = %25
  %30 = load ptr, ptr %9, align 8
  %31 = load i32, ptr %10, align 4
  %32 = insertvalue { ptr, i32 } poison, ptr %30, 0
  %33 = insertvalue { ptr, i32 } %32, i32 %31, 1
  resume { ptr, i32 } %33
}