; Function Attrs: mustprogress uwtable
define void @_ZN6icu_7716BytesTrieBuilder17BTLinearMatchNodeC2EPKciPNS_17StringTrieBuilder4NodeE(ptr noundef nonnull align 8 dereferenceable(48) initializes((0, 17), (20, 28), (32, 48)) %0, ptr noundef %1, i32 noundef %2, ptr noundef %3) unnamed_addr #1 align 2 personality ptr @__gxx_personality_v0 {
  %5 = icmp eq ptr %3, null
  br i1 %5, label %_ZN6icu_7717StringTrieBuilder15LinearMatchNodeC2EiPNS0_4NodeE.exit, label %6

6:                                                ; preds = %4
  %7 = getelementptr inbounds nuw i8, ptr %3, i64 8
  %8 = load i32, ptr %7, align 8, !tbaa !48
  br label %_ZN6icu_7717StringTrieBuilder15LinearMatchNodeC2EiPNS0_4NodeE.exit

_ZN6icu_7717StringTrieBuilder15LinearMatchNodeC2EiPNS0_4NodeE.exit: ; preds = %4, %6
  %9 = phi i32 [ %8, %6 ], [ 0, %4 ]
  %10 = mul i32 %2, 37
  %11 = add i32 %10, 298634171
  %12 = add i32 %11, %9
  %13 = getelementptr inbounds nuw i8, ptr %0, i64 8
  store i32 %12, ptr %13, align 8, !tbaa !48
  %14 = getelementptr inbounds nuw i8, ptr %0, i64 12
  store i32 0, ptr %14, align 4, !tbaa !50
  %15 = getelementptr inbounds nuw i8, ptr %0, i64 16
  store i8 0, ptr %15, align 8, !tbaa !51
  %16 = getelementptr inbounds nuw i8, ptr %0, i64 20
  store i32 0, ptr %16, align 4, !tbaa !53
  %17 = getelementptr inbounds nuw i8, ptr %0, i64 24
  store i32 %2, ptr %17, align 8, !tbaa !54
  %18 = getelementptr inbounds nuw i8, ptr %0, i64 32
  store ptr %3, ptr %18, align 8, !tbaa !57
  store ptr getelementptr inbounds nuw inrange(-16, 48) (i8, ptr @_ZTVN6icu_7716BytesTrieBuilder17BTLinearMatchNodeE, i64 16), ptr %0, align 8, !tbaa !21
  %19 = getelementptr inbounds nuw i8, ptr %0, i64 40
  store ptr %1, ptr %19, align 8, !tbaa !58
  %20 = invoke i32 @ustr_hashCharsN_77(ptr noundef %1, i32 noundef %2)
          to label %21 unwind label %24

21:                                               ; preds = %_ZN6icu_7717StringTrieBuilder15LinearMatchNodeC2EiPNS0_4NodeE.exit
  %22 = mul i32 %12, 37
  %23 = add i32 %20, %22
  store i32 %23, ptr %13, align 8, !tbaa !48
  ret void

24:                                               ; preds = %_ZN6icu_7717StringTrieBuilder15LinearMatchNodeC2EiPNS0_4NodeE.exit
  %25 = landingpad { ptr, i32 }
          cleanup
  tail call void @_ZN6icu_777UObjectD2Ev(ptr noundef nonnull align 8 dereferenceable(40) %0) #19
  resume { ptr, i32 } %25
}